target datalayout = "e-m:e-p270:32:32-p271:32:32-p272:64:64-i64:64-i128:128-f80:128-n8:16:32:64-S128"
target triple = "x86_64-unknown-linux-gnu"

%class.maximize_ac_sharing = type { ptr, ptr, i8, %class.region, %class.ptr_hashtable, %class.ptr_vector, %class.svector, %class.svector.1 }
%class.region = type { ptr, ptr, ptr, ptr, ptr }
%class.ptr_hashtable = type { %class.core_hashtable.base, [4 x i8] }
%class.core_hashtable.base = type <{ ptr, i32, i32, i32 }>
%class.ptr_vector = type { %class.vector }
%class.vector = type { ptr }
%class.svector = type { %class.vector.0 }
%class.vector.0 = type { ptr }
%class.svector.1 = type { %class.vector.2 }
%class.vector.2 = type { ptr }
%class.core_hashtable = type <{ ptr, i32, i32, i32, [4 x i8] }>
%class.ptr_hash_entry = type { i32, ptr }

; Function Attrs: mustprogress nounwind uwtable
define linkonce_odr hidden void @_ZN14ptr_hash_entryIN19maximize_ac_sharing5entryEEC2Ev(ptr noundef nonnull align 8 dereferenceable(16) %this) unnamed_addr #5 comdat align 2 {
entry:
  %this.addr = alloca ptr, align 8
  store ptr %this, ptr %this.addr, align 8
  %this1 = load ptr, ptr %this.addr, align 8
  %m_ptr = getelementptr inbounds %class.ptr_hash_entry, ptr %this1, i32 0, i32 1
  store ptr null, ptr %m_ptr, align 8
  ret void
}

; Function Attrs: mustprogress uwtable
define linkonce_odr hidden noalias noundef ptr @_Z10alloc_vectI14ptr_hash_entryIN19maximize_ac_sharing5entryEEEPT_j(i32 noundef %sz) #4 comdat {
entry:
  %sz.addr = alloca i32, align 4
  %r = alloca ptr, align 8
  %curr = alloca ptr, align 8
  %i = alloca i32, align 4
  store i32 %sz, ptr %sz.addr, align 4
  %0 = load i32, ptr %sz.addr, align 4
  %conv = zext i32 %0 to i64
  %mul = mul i64 16, %conv
  %call = call noalias noundef ptr @_ZN6memory8allocateEm(i64 noundef %mul)
  store ptr %call, ptr %r, align 8
  %1 = load ptr, ptr %r, align 8
  store ptr %1, ptr %curr, align 8
  store i32 0, ptr %i, align 4
  br label %for.cond

for.cond:                                         ; preds = %for.inc, %entry
  %2 = load i32, ptr %i, align 4
  %3 = load i32, ptr %sz.addr, align 4
  %cmp = icmp ult i32 %2, %3
  br i1 %cmp, label %for.body, label %for.end

for.body:                                         ; preds = %for.cond
  %4 = load ptr, ptr %curr, align 8
  call void @llvm.memset.p0.i64(ptr align 8 %4, i8 0, i64 16, i1 false)
  call void @_ZN14ptr_hash_entryIN19maximize_ac_sharing5entryEEC2Ev(ptr noundef nonnull align 8 dereferenceable(16) %4) #3
  br label %for.inc

for.inc:                                          ; preds = %for.body
  %5 = load i32, ptr %i, align 4
  %inc = add i32 %5, 1
  store i32 %inc, ptr %i, align 4
  %6 = load ptr, ptr %curr, align 8
  %incdec.ptr = getelementptr inbounds %class.ptr_hash_entry, ptr %6, i32 1
  store ptr %incdec.ptr, ptr %curr, align 8
  br label %for.cond, !llvm.loop !27

for.end:                                          ; preds = %for.cond
  %7 = load ptr, ptr %r, align 8
  ret ptr %7
}

; Function Attrs: mustprogress uwtable
define linkonce_odr hidden void @_Z12dealloc_vectI14ptr_hash_entryIN19maximize_ac_sharing5entryEEEvPT_j(ptr noundef %ptr, i32 noundef %sz) #4 comdat {
entry:
  %ptr.addr = alloca ptr, align 8
  %sz.addr = alloca i32, align 4
  %curr = alloca ptr, align 8
  %i = alloca i32, align 4
  store ptr %ptr, ptr %ptr.addr, align 8
  store i32 %sz, ptr %sz.addr, align 4
  %0 = load ptr, ptr %ptr.addr, align 8
  %cmp = icmp eq ptr %0, null
  br i1 %cmp, label %if.then, label %if.end

if.then:                                          ; preds = %entry
  br label %return

if.end:                                           ; preds = %entry
  %1 = load ptr, ptr %ptr.addr, align 8
  store ptr %1, ptr %curr, align 8
  store i32 0, ptr %i, align 4
  br label %for.cond

for.cond:                                         ; preds = %for.inc, %if.end
  %2 = load i32, ptr %i, align 4
  %3 = load i32, ptr %sz.addr, align 4
  %cmp1 = icmp ult i32 %2, %3
  br i1 %cmp1, label %for.body, label %for.end

for.body:                                         ; preds = %for.cond
  br label %for.inc

for.inc:                                          ; preds = %for.body
  %4 = load i32, ptr %i, align 4
  %inc = add i32 %4, 1
  store i32 %inc, ptr %i, align 4
  %5 = load ptr, ptr %curr, align 8
  %incdec.ptr = getelementptr inbounds %class.ptr_hash_entry, ptr %5, i32 1
  store ptr %incdec.ptr, ptr %curr, align 8
  br label %for.cond, !llvm.loop !17

for.end:                                          ; preds = %for.cond
  %6 = load ptr, ptr %ptr.addr, align 8
  call void @_ZN6memory10deallocateEPv(ptr noundef %6)
  br label %return

return:                                           ; preds = %for.end, %if.then
  ret void
}

; Function Attrs: mustprogress uwtable
define linkonce_odr hidden noundef ptr @_ZN14core_hashtableI14ptr_hash_entryIN19maximize_ac_sharing5entryEE12obj_ptr_hashIS2_E8deref_eqIS2_EE11alloc_tableEj(ptr noundef nonnull align 8 dereferenceable(20) %this, i32 noundef %size) #4 comdat align 2 {
entry:
  %this.addr = alloca ptr, align 8
  %size.addr = alloca i32, align 4
  %entries = alloca ptr, align 8
  store ptr %this, ptr %this.addr, align 8
  store i32 %size, ptr %size.addr, align 4
  %0 = load i32, ptr %size.addr, align 4
  %call = call noalias noundef ptr @_Z10alloc_vectI14ptr_hash_entryIN19maximize_ac_sharing5entryEEEPT_j(i32 noundef %0)
  store ptr %call, ptr %entries, align 8
  %1 = load ptr, ptr %entries, align 8
  ret ptr %1
}

; Function Attrs: mustprogress uwtable
define linkonce_odr hidden void @_ZN14core_hashtableI14ptr_hash_entryIN19maximize_ac_sharing5entryEE12obj_ptr_hashIS2_E8deref_eqIS2_EE12delete_tableEv(ptr noundef nonnull align 8 dereferenceable(20) %this) #4 comdat align 2 {
entry:
  %this.addr = alloca ptr, align 8
  store ptr %this, ptr %this.addr, align 8
  %this1 = load ptr, ptr %this.addr, align 8
  %m_table = getelementptr inbounds %class.core_hashtable, ptr %this1, i32 0, i32 0
  %0 = load ptr, ptr %m_table, align 8
  %m_capacity = getelementptr inbounds %class.core_hashtable, ptr %this1, i32 0, i32 1
  %1 = load i32, ptr %m_capacity, align 8
  call void @_Z12dealloc_vectI14ptr_hash_entryIN19maximize_ac_sharing5entryEEEvPT_j(ptr noundef %0, i32 noundef %1)
  %m_table2 = getelementptr inbounds %class.core_hashtable, ptr %this1, i32 0, i32 0
  store ptr null, ptr %m_table2, align 8
  ret void
}

; Function Attrs: mustprogress nounwind uwtable
define linkonce_odr hidden void @_ZN14ptr_hash_entryIN19maximize_ac_sharing5entryEE12mark_as_freeEv(ptr noundef nonnull align 8 dereferenceable(16) %this) #5 comdat align 2 {
entry:
  %this.addr = alloca ptr, align 8
  store ptr %this, ptr %this.addr, align 8
  %this1 = load ptr, ptr %this.addr, align 8
  %m_ptr = getelementptr inbounds %class.ptr_hash_entry, ptr %this1, i32 0, i32 1
  store ptr null, ptr %m_ptr, align 8
  ret void
}

; Function Attrs: mustprogress nounwind uwtable
define linkonce_odr hidden noundef zeroext i1 @_ZNK14ptr_hash_entryIN19maximize_ac_sharing5entryEE7is_freeEv(ptr noundef nonnull align 8 dereferenceable(16) %this) #5 comdat align 2 {
entry:
  %this.addr = alloca ptr, align 8
  store ptr %this, ptr %this.addr, align 8
  %this1 = load ptr, ptr %this.addr, align 8
  %m_ptr = getelementptr inbounds %class.ptr_hash_entry, ptr %this1, i32 0, i32 1
  %0 = load ptr, ptr %m_ptr, align 8
  %cmp = icmp eq ptr %0, null
  ret i1 %cmp
}

; Function Attrs: mustprogress uwtable
define linkonce_odr hidden void @_ZN14core_hashtableI14ptr_hash_entryIN19maximize_ac_sharing5entryEE12obj_ptr_hashIS2_E8deref_eqIS2_EE5resetEv(ptr noundef nonnull align 8 dereferenceable(20) %this) #4 comdat align 2 {
entry:
  %this.addr = alloca ptr, align 8
  %overhead = alloca i32, align 4
  %curr = alloca ptr, align 8
  %end = alloca ptr, align 8
  store ptr %this, ptr %this.addr, align 8
  %this1 = load ptr, ptr %this.addr, align 8
  %m_size = getelementptr inbounds %class.core_hashtable, ptr %this1, i32 0, i32 2
  %0 = load i32, ptr %m_size, align 4
  %cmp = icmp eq i32 %0, 0
  br i1 %cmp, label %land.lhs.true, label %if.end

land.lhs.true:                                    ; preds = %entry
  %m_num_deleted = getelementptr inbounds %class.core_hashtable, ptr %this1, i32 0, i32 3
  %1 = load i32, ptr %m_num_deleted, align 8
  %cmp2 = icmp eq i32 %1, 0
  br i1 %cmp2, label %if.then, label %if.end

if.then:                                          ; preds = %land.lhs.true
  br label %return

if.end:                                           ; preds = %land.lhs.true, %entry
  store i32 0, ptr %overhead, align 4
  %m_table = getelementptr inbounds %class.core_hashtable, ptr %this1, i32 0, i32 0
  %2 = load ptr, ptr %m_table, align 8
  store ptr %2, ptr %curr, align 8
  %m_table3 = getelementptr inbounds %class.core_hashtable, ptr %this1, i32 0, i32 0
  %3 = load ptr, ptr %m_table3, align 8
  %m_capacity = getelementptr inbounds %class.core_hashtable, ptr %this1, i32 0, i32 1
  %4 = load i32, ptr %m_capacity, align 8
  %idx.ext = zext i32 %4 to i64
  %add.ptr = getelementptr inbounds %class.ptr_hash_entry, ptr %3, i64 %idx.ext
  store ptr %add.ptr, ptr %end, align 8
  br label %for.cond

for.cond:                                         ; preds = %for.inc, %if.end
  %5 = load ptr, ptr %curr, align 8
  %6 = load ptr, ptr %end, align 8
  %cmp4 = icmp ne ptr %5, %6
  br i1 %cmp4, label %for.body, label %for.end

for.body:                                         ; preds = %for.cond
  %7 = load ptr, ptr %curr, align 8
  %call = call noundef zeroext i1 @_ZNK14ptr_hash_entryIN19maximize_ac_sharing5entryEE7is_freeEv(ptr noundef nonnull align 8 dereferenceable(16) %7)
  br i1 %call, label %if.else, label %if.then5

if.then5:                                         ; preds = %for.body
  %8 = load ptr, ptr %curr, align 8
  call void @_ZN14ptr_hash_entryIN19maximize_ac_sharing5entryEE12mark_as_freeEv(ptr noundef nonnull align 8 dereferenceable(16) %8)
  br label %if.end6

if.else:                                          ; preds = %for.body
  %9 = load i32, ptr %overhead, align 4
  %inc = add i32 %9, 1
  store i32 %inc, ptr %overhead, align 4
  br label %if.end6

if.end6:                                          ; preds = %if.else, %if.then5
  br label %for.inc

for.inc:                                          ; preds = %if.end6
  %10 = load ptr, ptr %curr, align 8
  %incdec.ptr = getelementptr inbounds %class.ptr_hash_entry, ptr %10, i32 1
  store ptr %incdec.ptr, ptr %curr, align 8
  br label %for.cond, !llvm.loop !16

for.end:                                          ; preds = %for.cond
  %m_capacity7 = getelementptr inbounds %class.core_hashtable, ptr %this1, i32 0, i32 1
  %11 = load i32, ptr %m_capacity7, align 8
  %cmp8 = icmp ugt i32 %11, 16
  br i1 %cmp8, label %land.lhs.true9, label %if.end18

land.lhs.true9:                                   ; preds = %for.end
  %12 = load i32, ptr %overhead, align 4
  %shl = shl i32 %12, 2
  %m_capacity10 = getelementptr inbounds %class.core_hashtable, ptr %this1, i32 0, i32 1
  %13 = load i32, ptr %m_capacity10, align 8
  %mul = mul i32 %13, 3
  %cmp11 = icmp ugt i32 %shl, %mul
  br i1 %cmp11, label %if.then12, label %if.end18

if.then12:                                        ; preds = %land.lhs.true9
  call void @_ZN14core_hashtableI14ptr_hash_entryIN19maximize_ac_sharing5entryEE12obj_ptr_hashIS2_E8deref_eqIS2_EE12delete_tableEv(ptr noundef nonnull align 8 dereferenceable(20) %this1)
  %m_capacity13 = getelementptr inbounds %class.core_hashtable, ptr %this1, i32 0, i32 1
  %14 = load i32, ptr %m_capacity13, align 8
  %shr = lshr i32 %14, 1
  %m_capacity14 = getelementptr inbounds %class.core_hashtable, ptr %this1, i32 0, i32 1
  store i32 %shr, ptr %m_capacity14, align 8
  %m_capacity15 = getelementptr inbounds %class.core_hashtable, ptr %this1, i32 0, i32 1
  %15 = load i32, ptr %m_capacity15, align 8
  %call16 = call noundef ptr @_ZN14core_hashtableI14ptr_hash_entryIN19maximize_ac_sharing5entryEE12obj_ptr_hashIS2_E8deref_eqIS2_EE11alloc_tableEj(ptr noundef nonnull align 8 dereferenceable(20) %this1, i32 noundef %15)
  %m_table17 = getelementptr inbounds %class.core_hashtable, ptr %this1, i32 0, i32 0
  store ptr %call16, ptr %m_table17, align 8
  br label %if.end18

if.end18:                                         ; preds = %if.then12, %land.lhs.true9, %for.end
  %m_size19 = getelementptr inbounds %class.core_hashtable, ptr %this1, i32 0, i32 2
  store i32 0, ptr %m_size19, align 4
  %m_num_deleted20 = getelementptr inbounds %class.core_hashtable, ptr %this1, i32 0, i32 3
  store i32 0, ptr %m_num_deleted20, align 8
  br label %return

return:                                           ; preds = %if.end18, %if.then
  ret void
}

; Function Attrs: mustprogress uwtable
define hidden void @_ZN19maximize_ac_sharing5resetEv(ptr noundef nonnull align 8 dereferenceable(112) %this) #4 align 2 {
entry:
  %this.addr = alloca ptr, align 8
  store ptr %this, ptr %this.addr, align 8
  %this1 = load ptr, ptr %this.addr, align 8
  %m_cache = getelementptr inbounds %class.maximize_ac_sharing, ptr %this1, i32 0, i32 4
  call void @_ZN14core_hashtableI14ptr_hash_entryIN19maximize_ac_sharing5entryEE12obj_ptr_hashIS2_E8deref_eqIS2_EE5resetEv(ptr noundef nonnull align 8 dereferenceable(20) %m_cache)
  ret void
}