; Function Attrs: mustprogress uwtable
define hidden void @_ZN19maximize_ac_sharing5resetEv(ptr nocapture noundef nonnull align 8 dereferenceable(112) %this) local_unnamed_addr #3 align 2 {
entry:
  %m_cache = getelementptr inbounds i8, ptr %this, i64 64
  %m_size.i = getelementptr inbounds i8, ptr %this, i64 76
  %0 = load i32, ptr %m_size.i, align 4
  %cmp.i = icmp eq i32 %0, 0
  %m_num_deleted.i = getelementptr inbounds i8, ptr %this, i64 80
  %1 = load i32, ptr %m_num_deleted.i, align 8
  %cmp2.i = icmp eq i32 %1, 0
  %or.cond.i = select i1 %cmp.i, i1 %cmp2.i, i1 false
  br i1 %or.cond.i, label %_ZN14core_hashtableI14ptr_hash_entryIN19maximize_ac_sharing5entryEE12obj_ptr_hashIS2_E8deref_eqIS2_EE5resetEv.exit, label %if.end.i

if.end.i:                                         ; preds = %entry
  %2 = load ptr, ptr %m_cache, align 8
  %m_capacity.i = getelementptr inbounds i8, ptr %this, i64 72
  %3 = load i32, ptr %m_capacity.i, align 8
  %idx.ext.i = zext i32 %3 to i64
  %add.ptr.i = getelementptr inbounds %class.ptr_hash_entry, ptr %2, i64 %idx.ext.i
  %cmp4.not6.i = icmp eq i32 %3, 0
  br i1 %cmp4.not6.i, label %if.end18.i, label %for.body.i

for.body.i:                                       ; preds = %if.end.i, %for.inc.i
  %overhead.08.i = phi i32 [ %overhead.1.i, %for.inc.i ], [ 0, %if.end.i ]
  %curr.07.i = phi ptr [ %incdec.ptr.i, %for.inc.i ], [ %2, %if.end.i ]
  %m_ptr.i.i = getelementptr inbounds i8, ptr %curr.07.i, i64 8
  %4 = load ptr, ptr %m_ptr.i.i, align 8
  %cmp.i.i = icmp eq ptr %4, null
  br i1 %cmp.i.i, label %if.else.i, label %if.then5.i

if.then5.i:                                       ; preds = %for.body.i
  store ptr null, ptr %m_ptr.i.i, align 8
  br label %for.inc.i

if.else.i:                                        ; preds = %for.body.i
  %inc.i = add i32 %overhead.08.i, 1
  br label %for.inc.i

for.inc.i:                                        ; preds = %if.else.i, %if.then5.i
  %overhead.1.i = phi i32 [ %inc.i, %if.else.i ], [ %overhead.08.i, %if.then5.i ]
  %incdec.ptr.i = getelementptr inbounds i8, ptr %curr.07.i, i64 16
  %cmp4.not.i = icmp eq ptr %incdec.ptr.i, %add.ptr.i
  br i1 %cmp4.not.i, label %for.end.i, label %for.body.i, !llvm.loop !20

for.end.i:                                        ; preds = %for.inc.i
  %.pre.i = load i32, ptr %m_capacity.i, align 8
  %5 = shl i32 %overhead.1.i, 2
  %cmp8.i = icmp ugt i32 %.pre.i, 16
  %mul.i = mul i32 %.pre.i, 3
  %cmp11.i = icmp ugt i32 %5, %mul.i
  %or.cond12.i = select i1 %cmp8.i, i1 %cmp11.i, i1 false
  br i1 %or.cond12.i, label %if.then12.i, label %if.end18.i

if.then12.i:                                      ; preds = %for.end.i
  %6 = load ptr, ptr %m_cache, align 8
  %cmp.i.i.i = icmp eq ptr %6, null
  br i1 %cmp.i.i.i, label %_ZN14core_hashtableI14ptr_hash_entryIN19maximize_ac_sharing5entryEE12obj_ptr_hashIS2_E8deref_eqIS2_EE12delete_tableEv.exit.i, label %for.cond.preheader.i.i.i

for.cond.preheader.i.i.i:                         ; preds = %if.then12.i
  tail call void @_ZN6memory10deallocateEPv(ptr noundef nonnull %6)
  %.pre9.i = load i32, ptr %m_capacity.i, align 8
  br label %_ZN14core_hashtableI14ptr_hash_entryIN19maximize_ac_sharing5entryEE12obj_ptr_hashIS2_E8deref_eqIS2_EE12delete_tableEv.exit.i

_ZN14core_hashtableI14ptr_hash_entryIN19maximize_ac_sharing5entryEE12obj_ptr_hashIS2_E8deref_eqIS2_EE12delete_tableEv.exit.i: ; preds = %for.cond.preheader.i.i.i, %if.then12.i
  %7 = phi i32 [ %.pre.i, %if.then12.i ], [ %.pre9.i, %for.cond.preheader.i.i.i ]
  store ptr null, ptr %m_cache, align 8
  %shr.i = lshr i32 %7, 1
  store i32 %shr.i, ptr %m_capacity.i, align 8
  %conv.i.i.i = zext nneg i32 %shr.i to i64
  %mul.i.i.i = shl nuw nsw i64 %conv.i.i.i, 4
  %call.i.i.i = tail call noalias noundef ptr @_ZN6memory8allocateEm(i64 noundef %mul.i.i.i)
  %cmp5.not.i.i.i = icmp ult i32 %7, 2
  br i1 %cmp5.not.i.i.i, label %_ZN14core_hashtableI14ptr_hash_entryIN19maximize_ac_sharing5entryEE12obj_ptr_hashIS2_E8deref_eqIS2_EE11alloc_tableEj.exit.i, label %for.body.i.preheader.i.i

for.body.i.preheader.i.i:                         ; preds = %_ZN14core_hashtableI14ptr_hash_entryIN19maximize_ac_sharing5entryEE12obj_ptr_hashIS2_E8deref_eqIS2_EE12delete_tableEv.exit.i
  tail call void @llvm.memset.p0.i64(ptr align 8 %call.i.i.i, i8 0, i64 %mul.i.i.i, i1 false)
  br label %_ZN14core_hashtableI14ptr_hash_entryIN19maximize_ac_sharing5entryEE12obj_ptr_hashIS2_E8deref_eqIS2_EE11alloc_tableEj.exit.i

_ZN14core_hashtableI14ptr_hash_entryIN19maximize_ac_sharing5entryEE12obj_ptr_hashIS2_E8deref_eqIS2_EE11alloc_tableEj.exit.i: ; preds = %for.body.i.preheader.i.i, %_ZN14core_hashtableI14ptr_hash_entryIN19maximize_ac_sharing5entryEE12obj_ptr_hashIS2_E8deref_eqIS2_EE12delete_tableEv.exit.i
  store ptr %call.i.i.i, ptr %m_cache, align 8
  br label %if.end18.i

if.end18.i:                                       ; preds = %_ZN14core_hashtableI14ptr_hash_entryIN19maximize_ac_sharing5entryEE12obj_ptr_hashIS2_E8deref_eqIS2_EE11alloc_tableEj.exit.i, %for.end.i, %if.end.i
  store i32 0, ptr %m_size.i, align 4
  store i32 0, ptr %m_num_deleted.i, align 8
  br label %_ZN14core_hashtableI14ptr_hash_entryIN19maximize_ac_sharing5entryEE12obj_ptr_hashIS2_E8deref_eqIS2_EE5resetEv.exit

_ZN14core_hashtableI14ptr_hash_entryIN19maximize_ac_sharing5entryEE12obj_ptr_hashIS2_E8deref_eqIS2_EE5resetEv.exit: ; preds = %entry, %if.end18.i
  ret void
}